Certificate:
    Data:
        Version: 3 (0x2)
        Serial Number:
            50:a3:0f:f6:f0:5b:e4:9f:59:eb:13:69:1f:78:f1:56
    Signature Algorithm: sha256WithRSAEncryption
        Issuer: CN=ChangeMe
        Validity
            Not Before: Sep 24 11:10:20 2019 GMT
            Not After : Sep  8 11:10:20 2022 GMT
        Subject: CN=client
        Subject Public Key Info:
            Public Key Algorithm: rsaEncryption
                Public-Key: (2048 bit)
                Modulus:
                    00:d3:39:83:3c:3c:e8:a4:e4:15:37:87:44:21:cc:
                    0c:27:9d:dd:1b:9c:91:2c:23:90:95:40:b2:27:11:
                    a7:a8:6d:48:f3:ae:8e:63:d5:57:b8:a6:c0:0f:c2:
                    5a:4a:16:17:8e:ff:2c:b8:d6:d8:fa:70:37:a7:6b:
                    80:70:6d:bf:77:d0:c0:cc:23:5b:f7:37:ac:a2:e4:
                    eb:c4:a4:59:73:ca:4d:df:0c:0b:b3:09:6c:37:df:
                    f6:fc:d6:b9:38:10:d2:b2:a8:1e:24:90:52:36:40:
                    98:38:d6:5a:7b:65:d2:d7:84:45:73:09:d3:c9:39:
                    12:36:4d:3e:30:26:bb:76:ed:c7:0a:57:35:c6:ae:
                    d5:40:cb:25:e6:23:8f:94:79:f6:1e:cb:27:90:cf:
                    97:4e:b1:d1:28:5e:fd:6b:ce:16:90:3f:41:23:46:
                    84:0d:84:b4:dd:cd:e4:e8:d6:0c:eb:8d:87:58:11:
                    49:4a:a6:1c:41:34:39:f2:ac:f6:3c:29:46:ae:ac:
                    42:9c:c3:a0:98:3a:f5:38:b6:a7:8e:e5:0c:b6:ca:
                    e9:c2:fe:c7:b3:9a:38:81:e0:ee:75:c8:94:ed:49:
                    b1:6c:d6:e3:62:ac:d2:24:42:2e:d2:ad:b7:82:97:
                    29:19:8b:29:6a:88:75:ad:55:99:e2:21:ee:8e:d4:
                    3c:fb
                Exponent: 65537 (0x10001)
        X509v3 extensions:
            X509v3 Basic Constraints: 
                CA:FALSE
            X509v3 Subject Key Identifier: 
                01:14:80:A6:2D:E9:71:6A:57:69:22:CD:CA:D7:3D:C9:6D:3F:3A:9C
            X509v3 Authority Key Identifier: 
                keyid:0E:00:B5:F1:B2:B1:4F:10:B1:12:09:C8:F7:5F:64:C4:CE:58:80:41
                DirName:/CN=ChangeMe
                serial:DC:61:A8:DA:B0:2E:54:2D

            X509v3 Extended Key Usage: 
                TLS Web Client Authentication
            X509v3 Key Usage: 
                Digital Signature
    Signature Algorithm: sha256WithRSAEncryption
         13:a5:28:55:b1:7a:e4:42:93:3a:94:47:57:12:2c:cc:8a:79:
         c9:ac:8c:37:bc:3c:12:ad:59:de:57:ed:10:3d:4c:5f:cc:68:
         64:34:51:28:10:fb:3a:88:bd:85:f1:e3:f8:cf:a7:6d:9c:31:
         35:92:9f:d9:9b:b1:01:01:34:57:04:49:6f:a4:c8:84:8e:8e:
         c8:a6:80:d9:3e:37:43:9e:42:25:45:1c:d6:36:13:7f:e3:c9:
         25:1b:11:5d:ce:e4:68:70:a5:0c:51:71:cc:e8:e1:1f:d7:58:
         8b:6f:bd:13:2e:a4:9a:90:2f:26:38:88:b6:d5:2e:4b:95:dc:
         a9:af:d0:c5:6a:a2:ea:22:d4:f8:d2:03:58:bf:92:eb:05:26:
         ed:77:da:0e:36:e7:ed:de:03:7f:8b:da:e2:59:3f:27:be:c6:
         87:83:53:80:ba:83:ce:55:ed:b1:44:85:ad:cc:5a:3a:4f:b7:
         bf:be:f4:83:f5:eb:42:71:d9:33:5d:5b:be:51:4b:c8:0f:02:
         86:75:1d:e9:ab:15:48:ca:58:a1:6d:e9:65:0d:9c:f5:d5:45:
         5f:df:81:c9:15:fc:9d:c1:9e:3b:9f:c0:d3:50:78:ac:c8:7f:
         c5:81:0a:3d:0b:9e:f6:79:66:c0:85:bc:46:77:fd:37:21:4e:
         ad:3f:8f:50
-----BEGIN CERTIFICATE-----
MIIDQzCCAiugAwIBAgIQUKMP9vBb5J9Z6xNpH3jxVjANBgkqhkiG9w0BAQsFADAT
MREwDwYDVQQDDAhDaGFuZ2VNZTAeFw0xOTA5MjQxMTEwMjBaFw0yMjA5MDgxMTEw
MjBaMBExDzANBgNVBAMMBmNsaWVudDCCASIwDQYJKoZIhvcNAQEBBQADggEPADCC
AQoCggEBANM5gzw86KTkFTeHRCHMDCed3RuckSwjkJVAsicRp6htSPOujmPVV7im
wA/CWkoWF47/LLjW2PpwN6drgHBtv3fQwMwjW/c3rKLk68SkWXPKTd8MC7MJbDff
9vzWuTgQ0rKoHiSQUjZAmDjWWntl0teERXMJ08k5EjZNPjAmu3btxwpXNcau1UDL
JeYjj5R59h7LJ5DPl06x0She/WvOFpA/QSNGhA2EtN3N5OjWDOuNh1gRSUqmHEE0
OfKs9jwpRq6sQpzDoJg69Ti2p47lDLbK6cL+x7OaOIHg7nXIlO1JsWzW42Ks0iRC
LtKtt4KXKRmLKWqIda1VmeIh7o7UPPsCAwEAAaOBlDCBkTAJBgNVHRMEAjAAMB0G
A1UdDgQWBBQBFICmLelxaldpIs3K1z3JbT86nDBDBgNVHSMEPDA6gBQOALXxsrFP
ELESCcj3X2TEzliAQaEXpBUwEzERMA8GA1UEAwwIQ2hhbmdlTWWCCQDcYajasC5U
LTATBgNVHSUEDDAKBggrBgEFBQcDAjALBgNVHQ8EBAMCB4AwDQYJKoZIhvcNAQEL
BQADggEBABOlKFWxeuRCkzqUR1cSLMyKecmsjDe8PBKtWd5X7RA9TF/MaGQ0USgQ
+zqIvYXx4/jPp22cMTWSn9mbsQEBNFcESW+kyISOjsimgNk+N0OeQiVFHNY2E3/j
ySUbEV3O5GhwpQxRcczo4R/XWItvvRMupJqQLyY4iLbVLkuV3Kmv0MVqouoi1PjS
A1i/kusFJu132g425+3eA3+L2uJZPye+xoeDU4C6g85V7bFEha3MWjpPt7++9IP1
60Jx2TNdW75RS8gPAoZ1HemrFUjKWKFt6WUNnPXVRV/fgckV/J3BnjufwNNQeKzI
f8WBCj0LnvZ5ZsCFvEZ3/TchTq0/j1A=
-----END CERTIFICATE-----
