Certificate:
    Data:
        Version: 3 (0x2)
        Serial Number:
            b0:8a:78:f7:bb:9e:dc:bd:d1:02:f6:a8:f9:b4:14:c7
    Signature Algorithm: sha256WithRSAEncryption
        Issuer: CN=ChangeMe
        Validity
            Not Before: Sep 24 06:01:57 2019 GMT
            Not After : Sep  8 06:01:57 2022 GMT
        Subject: CN=client
        Subject Public Key Info:
            Public Key Algorithm: rsaEncryption
                Public-Key: (2048 bit)
                Modulus:
                    00:d2:09:39:f7:c6:7d:a9:fe:3b:a5:4a:4d:62:8a:
                    04:d2:70:5b:b0:95:a0:60:09:cb:e7:a0:46:13:7b:
                    f6:ff:5c:42:0a:07:31:c8:6b:8c:5e:05:fd:98:2a:
                    9a:fb:32:f0:50:98:76:fd:35:dc:98:f8:68:85:35:
                    30:12:8b:f6:45:3a:18:61:ed:cc:6b:fd:37:ba:e2:
                    02:37:2d:9f:c4:ab:0b:ec:0e:3c:24:66:78:43:a4:
                    a0:53:5a:63:7a:8d:95:83:16:51:f4:48:c1:5f:f0:
                    eb:0f:0e:c3:1d:f5:01:51:8e:51:f9:bc:6e:1d:bf:
                    db:8b:f2:0a:e3:40:03:5b:9c:6c:a1:9a:d5:c1:6a:
                    3b:e7:23:7c:bf:bf:9e:ef:b1:79:8d:80:99:2e:75:
                    44:37:0a:bb:ab:fb:e1:07:9c:ae:35:96:95:a0:1d:
                    ac:d8:7e:e3:5f:a5:ef:af:6f:87:cc:3b:f3:08:a9:
                    a0:14:db:f9:f8:37:b0:77:fa:a2:fc:04:3b:3c:77:
                    a1:6b:36:fe:fd:e8:e7:50:86:54:fd:90:70:a1:8b:
                    d5:a4:9d:45:e7:9d:a1:f3:97:01:3e:22:61:db:82:
                    f7:75:3c:3f:74:0b:69:0e:2c:50:23:6a:65:b2:55:
                    66:18:be:de:77:49:00:a1:86:25:5a:c6:be:a9:be:
                    f8:8b
                Exponent: 65537 (0x10001)
        X509v3 extensions:
            X509v3 Basic Constraints: 
                CA:FALSE
            X509v3 Subject Key Identifier: 
                DE:58:BC:BD:42:73:45:91:0A:60:79:0C:ED:EC:B0:16:B3:36:69:85
            X509v3 Authority Key Identifier: 
                keyid:D1:43:A4:42:E1:56:39:73:14:48:D7:3E:73:A1:A2:C5:45:7E:05:31
                DirName:/CN=ChangeMe
                serial:D4:EF:5F:3D:60:15:6C:B4

            X509v3 Extended Key Usage: 
                TLS Web Client Authentication
            X509v3 Key Usage: 
                Digital Signature
    Signature Algorithm: sha256WithRSAEncryption
         1a:0c:f1:d4:94:79:fc:d8:b8:15:86:83:fc:22:33:56:44:70:
         12:32:f0:95:e3:a2:f7:db:58:b8:cc:f5:57:54:48:c4:e5:15:
         32:e4:51:05:fd:dd:43:8b:0f:31:40:9d:8b:f0:22:f6:6d:f6:
         8d:40:f2:07:a6:1b:bc:3d:b4:95:27:58:36:b9:2b:1c:e3:37:
         ab:9d:49:71:46:44:ab:2f:9c:b8:18:f1:60:d9:0b:75:bc:fd:
         7d:dc:85:75:bf:c8:6f:e3:89:0e:bb:12:66:28:ef:1c:7a:73:
         43:2f:e7:8c:87:a1:f5:1a:e2:57:35:bd:75:8c:b1:dd:15:a1:
         b0:3b:29:2c:3e:f4:39:96:d2:07:18:14:f8:5c:f7:5b:ab:8e:
         85:98:43:31:8a:88:2c:9a:51:44:4b:ee:ed:61:9f:86:d7:69:
         18:37:cb:4d:49:2f:39:0f:7d:c0:20:dd:e5:4d:1b:94:5e:f3:
         50:d5:33:9f:ca:d4:b2:0e:fb:19:4a:78:0b:df:54:be:e3:21:
         fd:ca:60:85:1d:cf:f2:83:21:5c:67:71:ac:2f:d9:0b:b9:db:
         12:63:aa:1a:00:af:e5:83:84:c5:9d:18:49:ea:85:d1:7c:bd:
         b1:84:46:39:d5:d5:ab:16:5b:f6:15:41:be:90:15:17:bf:67:
         8c:e3:2d:ce
-----BEGIN CERTIFICATE-----
MIIDRDCCAiygAwIBAgIRALCKePe7nty90QL2qPm0FMcwDQYJKoZIhvcNAQELBQAw
EzERMA8GA1UEAwwIQ2hhbmdlTWUwHhcNMTkwOTI0MDYwMTU3WhcNMjIwOTA4MDYw
MTU3WjARMQ8wDQYDVQQDDAZjbGllbnQwggEiMA0GCSqGSIb3DQEBAQUAA4IBDwAw
ggEKAoIBAQDSCTn3xn2p/julSk1iigTScFuwlaBgCcvnoEYTe/b/XEIKBzHIa4xe
Bf2YKpr7MvBQmHb9NdyY+GiFNTASi/ZFOhhh7cxr/Te64gI3LZ/EqwvsDjwkZnhD
pKBTWmN6jZWDFlH0SMFf8OsPDsMd9QFRjlH5vG4dv9uL8grjQANbnGyhmtXBajvn
I3y/v57vsXmNgJkudUQ3Crur++EHnK41lpWgHazYfuNfpe+vb4fMO/MIqaAU2/n4
N7B3+qL8BDs8d6FrNv796OdQhlT9kHChi9WknUXnnaHzlwE+ImHbgvd1PD90C2kO
LFAjamWyVWYYvt53SQChhiVaxr6pvviLAgMBAAGjgZQwgZEwCQYDVR0TBAIwADAd
BgNVHQ4EFgQU3li8vUJzRZEKYHkM7eywFrM2aYUwQwYDVR0jBDwwOoAU0UOkQuFW
OXMUSNc+c6GixUV+BTGhF6QVMBMxETAPBgNVBAMMCENoYW5nZU1lggkA1O9fPWAV
bLQwEwYDVR0lBAwwCgYIKwYBBQUHAwIwCwYDVR0PBAQDAgeAMA0GCSqGSIb3DQEB
CwUAA4IBAQAaDPHUlHn82LgVhoP8IjNWRHASMvCV46L321i4zPVXVEjE5RUy5FEF
/d1Diw8xQJ2L8CL2bfaNQPIHphu8PbSVJ1g2uSsc4zernUlxRkSrL5y4GPFg2Qt1
vP193IV1v8hv44kOuxJmKO8cenNDL+eMh6H1GuJXNb11jLHdFaGwOyksPvQ5ltIH
GBT4XPdbq46FmEMxiogsmlFES+7tYZ+G12kYN8tNSS85D33AIN3lTRuUXvNQ1TOf
ytSyDvsZSngL31S+4yH9ymCFHc/ygyFcZ3GsL9kLudsSY6oaAK/lg4TFnRhJ6oXR
fL2xhEY51dWrFlv2FUG+kBUXv2eM4y3O
-----END CERTIFICATE-----
